; Function Attrs: mustprogress nofree norecurse nosync nounwind willreturn memory(read, inaccessiblemem: none) uwtable
define dso_local noundef zeroext i1 @_ZNK11btMultiBody38isLinkAndAllAncestorsStaticOrKinematicEi(ptr nocapture noundef nonnull readonly align 8 dereferenceable(640) %this, i32 noundef %i) local_unnamed_addr #6 align 2 {
entry:
  %cmp.not5 = icmp eq i32 %i, -1
  br i1 %cmp.not5, label %while.end, label %if.else.i.lr.ph

if.else.i.lr.ph:                                  ; preds = %entry
  %m_data.i.i = getelementptr inbounds i8, ptr %this, i64 192
  %0 = load ptr, ptr %m_data.i.i, align 8
  br label %if.else.i

if.else.i:                                        ; preds = %if.else.i.lr.ph, %if.end
  %link.06 = phi i32 [ %i, %if.else.i.lr.ph ], [ %3, %if.end ]
  %idxprom.i.i = sext i32 %link.06 to i64
  %m_collider.i = getelementptr inbounds %struct.btMultibodyLink, ptr %0, i64 %idxprom.i.i, i32 22
  %1 = load ptr, ptr %m_collider.i, align 8
  %tobool.not.i = icmp eq ptr %1, null
  br i1 %tobool.not.i, label %return, label %_ZNK11btMultiBody23isLinkStaticOrKinematicEi.exit

_ZNK11btMultiBody23isLinkStaticOrKinematicEi.exit: ; preds = %if.else.i
  %m_collisionFlags.i.i.i = getelementptr inbounds i8, ptr %1, i64 224
  %2 = load i32, ptr %m_collisionFlags.i.i.i, align 8
  %and.i.i.i = and i32 %2, 3
  %cmp.i.i.i.not = icmp eq i32 %and.i.i.i, 0
  br i1 %cmp.i.i.i.not, label %return, label %if.end

if.end:                                           ; preds = %_ZNK11btMultiBody23isLinkStaticOrKinematicEi.exit
  %m_parent = getelementptr inbounds %struct.btMultibodyLink, ptr %0, i64 %idxprom.i.i, i32 2
  %3 = load i32, ptr %m_parent, align 4
  %cmp.not = icmp eq i32 %3, -1
  br i1 %cmp.not, label %while.end, label %if.else.i, !llvm.loop !220

while.end:                                        ; preds = %if.end, %entry
  %m_fixedBase.i = getelementptr inbounds i8, ptr %this, i64 561
  %4 = load i8, ptr %m_fixedBase.i, align 1
  %5 = and i8 %4, 1
  %tobool.not.i3 = icmp eq i8 %5, 0
  br i1 %tobool.not.i3, label %lor.rhs.i, label %return

lor.rhs.i:                                        ; preds = %while.end
  %m_baseCollider.i.i = getelementptr inbounds i8, ptr %this, i64 8
  %6 = load ptr, ptr %m_baseCollider.i.i, align 8
  %tobool2.not.i = icmp eq ptr %6, null
  br i1 %tobool2.not.i, label %return, label %land.rhs.i

land.rhs.i:                                       ; preds = %lor.rhs.i
  %m_collisionFlags.i.i = getelementptr inbounds i8, ptr %6, i64 224
  %7 = load i32, ptr %m_collisionFlags.i.i, align 8
  %and.i.i = and i32 %7, 3
  %cmp.i.i = icmp ne i32 %and.i.i, 0
  br label %return

return:                                           ; preds = %if.else.i, %_ZNK11btMultiBody23isLinkStaticOrKinematicEi.exit, %land.rhs.i, %lor.rhs.i, %while.end
  %retval.0 = phi i1 [ true, %while.end ], [ false, %lor.rhs.i ], [ %cmp.i.i, %land.rhs.i ], [ false, %_ZNK11btMultiBody23isLinkStaticOrKinematicEi.exit ], [ false, %if.else.i ]
  ret i1 %retval.0
}